target datalayout = "e-m:e-p270:32:32-p271:32:32-p272:64:64-i64:64-i128:128-f80:128-n8:16:32:64-S128"
target triple = "x86_64-pc-linux-gnu"

%struct.hm_fragment_st = type { %struct.hm_header_st, ptr, ptr }
%struct.hm_header_st = type { i8, i64, i16, i64, i64, i32, %struct.dtls1_retransmit_state }
%struct.dtls1_retransmit_state = type { ptr, ptr }
%struct.ssl_connection_st = type { %struct.ssl_st, ptr, i32, ptr, ptr, ptr, i32, ptr, i32, i32, i32, i32, %struct.OSSL_TIME, %struct.OSSL_TIME, %struct.ossl_statem_st, i32, ptr, ptr, i64, i64, i64, %struct.ossl_quic_tls_callbacks_st, ptr, ptr, %struct.anon, ptr, ptr, ptr, i32, ptr, %struct.ssl_dane_st, ptr, ptr, ptr, ptr, i32, [64 x i8], [64 x i8], [64 x i8], [64 x i8], [64 x i8], [64 x i8], [64 x i8], [64 x i8], [64 x i8], [64 x i8], [64 x i8], [64 x i8], ptr, [64 x i8], i64, i32, i64, [32 x i8], ptr, ptr, ptr, i64, ptr, [32 x i8], i64, i32, ptr, ptr, i32, i32, ptr, ptr, ptr, ptr, ptr, i64, ptr, ptr, i64, i32, i32, i32, i64, i32, i32, i64, i64, i64, %struct.anon.1, ptr, i32, ptr, ptr, ptr, i32, ptr, ptr, ptr, i32, i32, i32, i32, ptr, i64, i32, ptr, %struct.srp_ctx_st, ptr, %struct.record_layer_st, ptr, ptr, ptr, ptr, i64, i32, i32, i32, i64, i64, i64, ptr, ptr, ptr, ptr, ptr, i64, ptr, i64, ptr, i64 }
%struct.ssl_st = type { i32, ptr, ptr, ptr, %struct.CRYPTO_REF_COUNT, ptr, %struct.crypto_ex_data_st }
%struct.CRYPTO_REF_COUNT = type { i32 }
%struct.crypto_ex_data_st = type { ptr, ptr }
%struct.OSSL_TIME = type { i64 }
%struct.ossl_statem_st = type { i32, i32, i32, i32, i32, i32, i32, i32, i32, i32, i32, i32, i32, ptr, ptr, ptr, i8 }
%struct.ossl_quic_tls_callbacks_st = type { ptr, ptr, ptr, ptr, ptr, ptr }
%struct.anon = type { i64, [32 x i8], [32 x i8], ptr, ptr, i32, i32, i32, i32, [2 x i8], i32, i32, i32, i32, %struct.anon.0, [64 x i8], i64, [64 x i8], i64, i32, i32, ptr, i64, ptr, i64, i32, i8, i8, i16, ptr, i16 }
%struct.anon.0 = type { [128 x i8], i64, [128 x i8], i64, i64, i32, ptr, ptr, [4 x ptr], [4 x i16], i64, i32, ptr, i64, ptr, i64, ptr, ptr, ptr, i32, i64, ptr, i32, ptr, i64, ptr, i64, ptr, i64, ptr, ptr, ptr, ptr, i64, i64, ptr, ptr, i32, i32, i32, i32 }
%struct.ssl_dane_st = type { ptr, ptr, ptr, ptr, ptr, i32, i32, i32, i64 }
%struct.anon.1 = type { [29 x i8], ptr, ptr, ptr, i32, ptr, i16, i32, %struct.anon.2, i32, i32, i64, ptr, i64, ptr, i64, ptr, i64, ptr, i64, ptr, i64, ptr, ptr, ptr, ptr, ptr, ptr, ptr, i64, ptr, i64, i32, i32, i32, i32, ptr, i64, i32, i8, i32, [4 x i32], i32, i8, i8, i8, i8 }
%struct.anon.2 = type { ptr, ptr, ptr, i64 }
%struct.srp_ctx_st = type { ptr, ptr, ptr, ptr, ptr, ptr, ptr, ptr, ptr, ptr, ptr, ptr, ptr, ptr, i32, i64 }
%struct.record_layer_st = type { ptr, ptr, ptr, ptr, ptr, ptr, ptr, ptr, i64, i32, i64, [4 x i8], i64, i64, i8, ptr, i32, ptr, ptr, ptr, i64, i64, i64, i64, [32 x %struct.tls_record_st] }
%struct.tls_record_st = type { ptr, i32, i8, ptr, ptr, i64, i64, i16, [8 x i8] }
%struct.dtls1_state_st = type { [255 x i8], i64, i32, i16, i16, i16, ptr, ptr, i64, i64, %struct.hm_header_st, %struct.hm_header_st, i32, %struct.OSSL_TIME, i32, i32, ptr }
%struct.buf_mem_st = type { i64, ptr, i64, i64 }

@.str = private unnamed_addr constant [36 x i8] c"../openssl/ssl/statem/statem_dtls.c\00", align 1

; Function Attrs: nounwind uwtable
define i32 @dtls1_get_queue_priority(i16 noundef zeroext %0, i32 noundef %1) #0 {
  %3 = alloca i16, align 2
  %4 = alloca i32, align 4
  store i16 %0, ptr %3, align 2, !tbaa !132
  store i32 %1, ptr %4, align 4, !tbaa !22
  %5 = load i16, ptr %3, align 2, !tbaa !132
  %6 = zext i16 %5 to i32
  %7 = mul nsw i32 %6, 2
  %8 = load i32, ptr %4, align 4, !tbaa !22
  %9 = sub nsw i32 %7, %8
  ret i32 %9
}

; Function Attrs: nounwind uwtable
define internal ptr @dtls1_hm_fragment_new(i64 noundef %0, i32 noundef %1) #0 {
  %3 = alloca ptr, align 8
  %4 = alloca i64, align 8
  %5 = alloca i32, align 4
  %6 = alloca ptr, align 8
  %7 = alloca ptr, align 8
  %8 = alloca ptr, align 8
  %9 = alloca i32, align 4
  store i64 %0, ptr %4, align 8, !tbaa !91
  store i32 %1, ptr %5, align 4, !tbaa !22
  call void @llvm.lifetime.start.p0(i64 8, ptr %6) #6
  store ptr null, ptr %6, align 8, !tbaa !3
  call void @llvm.lifetime.start.p0(i64 8, ptr %7) #6
  store ptr null, ptr %7, align 8, !tbaa !99
  call void @llvm.lifetime.start.p0(i64 8, ptr %8) #6
  store ptr null, ptr %8, align 8, !tbaa !99
  %10 = call noalias ptr @CRYPTO_zalloc(i64 noundef 80, ptr noundef @.str, i32 noundef 68)
  store ptr %10, ptr %6, align 8, !tbaa !3
  %11 = icmp eq ptr %10, null
  br i1 %11, label %12, label %13

12:                                               ; preds = %2
  store ptr null, ptr %3, align 8
  store i32 1, ptr %9, align 4
  br label %45

13:                                               ; preds = %2
  %14 = load i64, ptr %4, align 8, !tbaa !91
  %15 = icmp ne i64 %14, 0
  br i1 %15, label %16, label %23

16:                                               ; preds = %13
  %17 = load i64, ptr %4, align 8, !tbaa !91
  %18 = call noalias ptr @CRYPTO_malloc(i64 noundef %17, ptr noundef @.str, i32 noundef 72)
  store ptr %18, ptr %7, align 8, !tbaa !99
  %19 = icmp eq ptr %18, null
  br i1 %19, label %20, label %22

20:                                               ; preds = %16
  %21 = load ptr, ptr %6, align 8, !tbaa !3
  call void @CRYPTO_free(ptr noundef %21, ptr noundef @.str, i32 noundef 73)
  store ptr null, ptr %3, align 8
  store i32 1, ptr %9, align 4
  br label %45

22:                                               ; preds = %16
  br label %23

23:                                               ; preds = %22, %13
  %24 = load ptr, ptr %7, align 8, !tbaa !99
  %25 = load ptr, ptr %6, align 8, !tbaa !3
  %26 = getelementptr inbounds nuw %struct.hm_fragment_st, ptr %25, i32 0, i32 1
  store ptr %24, ptr %26, align 8, !tbaa !8
  %27 = load i32, ptr %5, align 4, !tbaa !22
  %28 = icmp ne i32 %27, 0
  br i1 %28, label %29, label %40

29:                                               ; preds = %23
  %30 = load i64, ptr %4, align 8, !tbaa !91
  %31 = add i64 %30, 7
  %32 = udiv i64 %31, 8
  %33 = call noalias ptr @CRYPTO_zalloc(i64 noundef %32, ptr noundef @.str, i32 noundef 83)
  store ptr %33, ptr %8, align 8, !tbaa !99
  %34 = load ptr, ptr %8, align 8, !tbaa !99
  %35 = icmp eq ptr %34, null
  br i1 %35, label %36, label %39

36:                                               ; preds = %29
  %37 = load ptr, ptr %7, align 8, !tbaa !99
  call void @CRYPTO_free(ptr noundef %37, ptr noundef @.str, i32 noundef 85)
  %38 = load ptr, ptr %6, align 8, !tbaa !3
  call void @CRYPTO_free(ptr noundef %38, ptr noundef @.str, i32 noundef 86)
  store ptr null, ptr %3, align 8
  store i32 1, ptr %9, align 4
  br label %45

39:                                               ; preds = %29
  br label %40

40:                                               ; preds = %39, %23
  %41 = load ptr, ptr %8, align 8, !tbaa !99
  %42 = load ptr, ptr %6, align 8, !tbaa !3
  %43 = getelementptr inbounds nuw %struct.hm_fragment_st, ptr %42, i32 0, i32 2
  store ptr %41, ptr %43, align 8, !tbaa !18
  %44 = load ptr, ptr %6, align 8, !tbaa !3
  store ptr %44, ptr %3, align 8
  store i32 1, ptr %9, align 4
  br label %45

45:                                               ; preds = %40, %36, %20, %12
  call void @llvm.lifetime.end.p0(i64 8, ptr %8) #6
  call void @llvm.lifetime.end.p0(i64 8, ptr %7) #6
  call void @llvm.lifetime.end.p0(i64 8, ptr %6) #6
  %46 = load ptr, ptr %3, align 8
  ret ptr %46
}

; Function Attrs: nounwind uwtable
define i32 @dtls1_buffer_message(ptr noundef %0, i32 noundef %1) #0 {
  %3 = alloca i32, align 4
  %4 = alloca ptr, align 8
  %5 = alloca i32, align 4
  %6 = alloca ptr, align 8
  %7 = alloca ptr, align 8
  %8 = alloca [8 x i8], align 1
  %9 = alloca i32, align 4
  store ptr %0, ptr %4, align 8, !tbaa !19
  store i32 %1, ptr %5, align 4, !tbaa !22
  call void @llvm.lifetime.start.p0(i64 8, ptr %6) #6
  call void @llvm.lifetime.start.p0(i64 8, ptr %7) #6
  call void @llvm.lifetime.start.p0(i64 8, ptr %8) #6
  %10 = load ptr, ptr %4, align 8, !tbaa !19
  %11 = getelementptr inbounds nuw %struct.ssl_connection_st, ptr %10, i32 0, i32 19
  %12 = load i64, ptr %11, align 8, !tbaa !84
  %13 = icmp eq i64 %12, 0
  %14 = zext i1 %13 to i32
  %15 = icmp ne i32 %14, 0
  %16 = xor i1 %15, true
  %17 = xor i1 %16, true
  %18 = zext i1 %17 to i32
  %19 = sext i32 %18 to i64
  %20 = call i64 @llvm.expect.i64(i64 %19, i64 1)
  %21 = icmp ne i64 %20, 0
  br i1 %21, label %23, label %22

22:                                               ; preds = %2
  store i32 0, ptr %3, align 4
  store i32 1, ptr %9, align 4
  br label %200

23:                                               ; preds = %2
  %24 = load ptr, ptr %4, align 8, !tbaa !19
  %25 = getelementptr inbounds nuw %struct.ssl_connection_st, ptr %24, i32 0, i32 18
  %26 = load i64, ptr %25, align 8, !tbaa !85
  %27 = call ptr @dtls1_hm_fragment_new(i64 noundef %26, i32 noundef 0)
  store ptr %27, ptr %7, align 8, !tbaa !3
  %28 = load ptr, ptr %7, align 8, !tbaa !3
  %29 = icmp eq ptr %28, null
  br i1 %29, label %30, label %31

30:                                               ; preds = %23
  store i32 0, ptr %3, align 4
  store i32 1, ptr %9, align 4
  br label %200

31:                                               ; preds = %23
  %32 = load ptr, ptr %7, align 8, !tbaa !3
  %33 = getelementptr inbounds nuw %struct.hm_fragment_st, ptr %32, i32 0, i32 1
  %34 = load ptr, ptr %33, align 8, !tbaa !8
  %35 = load ptr, ptr %4, align 8, !tbaa !19
  %36 = getelementptr inbounds nuw %struct.ssl_connection_st, ptr %35, i32 0, i32 16
  %37 = load ptr, ptr %36, align 8, !tbaa !95
  %38 = getelementptr inbounds nuw %struct.buf_mem_st, ptr %37, i32 0, i32 1
  %39 = load ptr, ptr %38, align 8, !tbaa !96
  %40 = load ptr, ptr %4, align 8, !tbaa !19
  %41 = getelementptr inbounds nuw %struct.ssl_connection_st, ptr %40, i32 0, i32 18
  %42 = load i64, ptr %41, align 8, !tbaa !85
  call void @llvm.memcpy.p0.p0.i64(ptr align 1 %34, ptr align 1 %39, i64 %42, i1 false)
  %43 = load i32, ptr %5, align 4, !tbaa !22
  %44 = icmp ne i32 %43, 0
  br i1 %44, label %45, label %76

45:                                               ; preds = %31
  %46 = load ptr, ptr %4, align 8, !tbaa !19
  %47 = getelementptr inbounds nuw %struct.ssl_connection_st, ptr %46, i32 0, i32 25
  %48 = load ptr, ptr %47, align 8, !tbaa !80
  %49 = getelementptr inbounds nuw %struct.dtls1_state_st, ptr %48, i32 0, i32 10
  %50 = getelementptr inbounds nuw %struct.hm_header_st, ptr %49, i32 0, i32 1
  %51 = load i64, ptr %50, align 8, !tbaa !86
  %52 = load ptr, ptr %4, align 8, !tbaa !19
  %53 = getelementptr inbounds nuw %struct.ssl_connection_st, ptr %52, i32 0, i32 2
  %54 = load i32, ptr %53, align 8, !tbaa !102
  %55 = icmp eq i32 %54, 256
  %56 = select i1 %55, i32 3, i32 1
  %57 = sext i32 %56 to i64
  %58 = add i64 %51, %57
  %59 = load ptr, ptr %4, align 8, !tbaa !19
  %60 = getelementptr inbounds nuw %struct.ssl_connection_st, ptr %59, i32 0, i32 18
  %61 = load i64, ptr %60, align 8, !tbaa !85
  %62 = trunc i64 %61 to i32
  %63 = zext i32 %62 to i64
  %64 = icmp eq i64 %58, %63
  %65 = zext i1 %64 to i32
  %66 = icmp ne i32 %65, 0
  %67 = xor i1 %66, true
  %68 = xor i1 %67, true
  %69 = zext i1 %68 to i32
  %70 = sext i32 %69 to i64
  %71 = call i64 @llvm.expect.i64(i64 %70, i64 1)
  %72 = icmp ne i64 %71, 0
  br i1 %72, label %75, label %73

73:                                               ; preds = %45
  %74 = load ptr, ptr %7, align 8, !tbaa !3
  call void @dtls1_hm_fragment_free(ptr noundef %74)
  store i32 0, ptr %3, align 4
  store i32 1, ptr %9, align 4
  br label %200

75:                                               ; preds = %45
  br label %101

76:                                               ; preds = %31
  %77 = load ptr, ptr %4, align 8, !tbaa !19
  %78 = getelementptr inbounds nuw %struct.ssl_connection_st, ptr %77, i32 0, i32 25
  %79 = load ptr, ptr %78, align 8, !tbaa !80
  %80 = getelementptr inbounds nuw %struct.dtls1_state_st, ptr %79, i32 0, i32 10
  %81 = getelementptr inbounds nuw %struct.hm_header_st, ptr %80, i32 0, i32 1
  %82 = load i64, ptr %81, align 8, !tbaa !86
  %83 = add i64 %82, 12
  %84 = load ptr, ptr %4, align 8, !tbaa !19
  %85 = getelementptr inbounds nuw %struct.ssl_connection_st, ptr %84, i32 0, i32 18
  %86 = load i64, ptr %85, align 8, !tbaa !85
  %87 = trunc i64 %86 to i32
  %88 = zext i32 %87 to i64
  %89 = icmp eq i64 %83, %88
  %90 = zext i1 %89 to i32
  %91 = icmp ne i32 %90, 0
  %92 = xor i1 %91, true
  %93 = xor i1 %92, true
  %94 = zext i1 %93 to i32
  %95 = sext i32 %94 to i64
  %96 = call i64 @llvm.expect.i64(i64 %95, i64 1)
  %97 = icmp ne i64 %96, 0
  br i1 %97, label %100, label %98

98:                                               ; preds = %76
  %99 = load ptr, ptr %7, align 8, !tbaa !3
  call void @dtls1_hm_fragment_free(ptr noundef %99)
  store i32 0, ptr %3, align 4
  store i32 1, ptr %9, align 4
  br label %200

100:                                              ; preds = %76
  br label %101

101:                                              ; preds = %100, %75
  %102 = load ptr, ptr %4, align 8, !tbaa !19
  %103 = getelementptr inbounds nuw %struct.ssl_connection_st, ptr %102, i32 0, i32 25
  %104 = load ptr, ptr %103, align 8, !tbaa !80
  %105 = getelementptr inbounds nuw %struct.dtls1_state_st, ptr %104, i32 0, i32 10
  %106 = getelementptr inbounds nuw %struct.hm_header_st, ptr %105, i32 0, i32 1
  %107 = load i64, ptr %106, align 8, !tbaa !86
  %108 = load ptr, ptr %7, align 8, !tbaa !3
  %109 = getelementptr inbounds nuw %struct.hm_fragment_st, ptr %108, i32 0, i32 0
  %110 = getelementptr inbounds nuw %struct.hm_header_st, ptr %109, i32 0, i32 1
  store i64 %107, ptr %110, align 8, !tbaa !142
  %111 = load ptr, ptr %4, align 8, !tbaa !19
  %112 = getelementptr inbounds nuw %struct.ssl_connection_st, ptr %111, i32 0, i32 25
  %113 = load ptr, ptr %112, align 8, !tbaa !80
  %114 = getelementptr inbounds nuw %struct.dtls1_state_st, ptr %113, i32 0, i32 10
  %115 = getelementptr inbounds nuw %struct.hm_header_st, ptr %114, i32 0, i32 2
  %116 = load i16, ptr %115, align 8, !tbaa !150
  %117 = load ptr, ptr %7, align 8, !tbaa !3
  %118 = getelementptr inbounds nuw %struct.hm_fragment_st, ptr %117, i32 0, i32 0
  %119 = getelementptr inbounds nuw %struct.hm_header_st, ptr %118, i32 0, i32 2
  store i16 %116, ptr %119, align 8, !tbaa !139
  %120 = load ptr, ptr %4, align 8, !tbaa !19
  %121 = getelementptr inbounds nuw %struct.ssl_connection_st, ptr %120, i32 0, i32 25
  %122 = load ptr, ptr %121, align 8, !tbaa !80
  %123 = getelementptr inbounds nuw %struct.dtls1_state_st, ptr %122, i32 0, i32 10
  %124 = getelementptr inbounds nuw %struct.hm_header_st, ptr %123, i32 0, i32 0
  %125 = load i8, ptr %124, align 8, !tbaa !151
  %126 = load ptr, ptr %7, align 8, !tbaa !3
  %127 = getelementptr inbounds nuw %struct.hm_fragment_st, ptr %126, i32 0, i32 0
  %128 = getelementptr inbounds nuw %struct.hm_header_st, ptr %127, i32 0, i32 0
  store i8 %125, ptr %128, align 8, !tbaa !143
  %129 = load ptr, ptr %7, align 8, !tbaa !3
  %130 = getelementptr inbounds nuw %struct.hm_fragment_st, ptr %129, i32 0, i32 0
  %131 = getelementptr inbounds nuw %struct.hm_header_st, ptr %130, i32 0, i32 3
  store i64 0, ptr %131, align 8, !tbaa !152
  %132 = load ptr, ptr %4, align 8, !tbaa !19
  %133 = getelementptr inbounds nuw %struct.ssl_connection_st, ptr %132, i32 0, i32 25
  %134 = load ptr, ptr %133, align 8, !tbaa !80
  %135 = getelementptr inbounds nuw %struct.dtls1_state_st, ptr %134, i32 0, i32 10
  %136 = getelementptr inbounds nuw %struct.hm_header_st, ptr %135, i32 0, i32 1
  %137 = load i64, ptr %136, align 8, !tbaa !86
  %138 = load ptr, ptr %7, align 8, !tbaa !3
  %139 = getelementptr inbounds nuw %struct.hm_fragment_st, ptr %138, i32 0, i32 0
  %140 = getelementptr inbounds nuw %struct.hm_header_st, ptr %139, i32 0, i32 4
  store i64 %137, ptr %140, align 8, !tbaa !144
  %141 = load i32, ptr %5, align 4, !tbaa !22
  %142 = load ptr, ptr %7, align 8, !tbaa !3
  %143 = getelementptr inbounds nuw %struct.hm_fragment_st, ptr %142, i32 0, i32 0
  %144 = getelementptr inbounds nuw %struct.hm_header_st, ptr %143, i32 0, i32 5
  store i32 %141, ptr %144, align 8, !tbaa !140
  %145 = load ptr, ptr %4, align 8, !tbaa !19
  %146 = getelementptr inbounds nuw %struct.ssl_connection_st, ptr %145, i32 0, i32 104
  %147 = getelementptr inbounds nuw %struct.record_layer_st, ptr %146, i32 0, i32 4
  %148 = load ptr, ptr %147, align 8, !tbaa !87
  %149 = load ptr, ptr %7, align 8, !tbaa !3
  %150 = getelementptr inbounds nuw %struct.hm_fragment_st, ptr %149, i32 0, i32 0
  %151 = getelementptr inbounds nuw %struct.hm_header_st, ptr %150, i32 0, i32 6
  %152 = getelementptr inbounds nuw %struct.dtls1_retransmit_state, ptr %151, i32 0, i32 0
  store ptr %148, ptr %152, align 8, !tbaa !147
  %153 = load ptr, ptr %4, align 8, !tbaa !19
  %154 = getelementptr inbounds nuw %struct.ssl_connection_st, ptr %153, i32 0, i32 104
  %155 = getelementptr inbounds nuw %struct.record_layer_st, ptr %154, i32 0, i32 6
  %156 = load ptr, ptr %155, align 8, !tbaa !90
  %157 = load ptr, ptr %7, align 8, !tbaa !3
  %158 = getelementptr inbounds nuw %struct.hm_fragment_st, ptr %157, i32 0, i32 0
  %159 = getelementptr inbounds nuw %struct.hm_header_st, ptr %158, i32 0, i32 6
  %160 = getelementptr inbounds nuw %struct.dtls1_retransmit_state, ptr %159, i32 0, i32 1
  store ptr %156, ptr %160, align 8, !tbaa !148
  %161 = getelementptr inbounds [8 x i8], ptr %8, i64 0, i64 0
  call void @llvm.memset.p0.i64(ptr align 1 %161, i8 0, i64 8, i1 false)
  %162 = load ptr, ptr %7, align 8, !tbaa !3
  %163 = getelementptr inbounds nuw %struct.hm_fragment_st, ptr %162, i32 0, i32 0
  %164 = getelementptr inbounds nuw %struct.hm_header_st, ptr %163, i32 0, i32 2
  %165 = load i16, ptr %164, align 8, !tbaa !139
  %166 = load ptr, ptr %7, align 8, !tbaa !3
  %167 = getelementptr inbounds nuw %struct.hm_fragment_st, ptr %166, i32 0, i32 0
  %168 = getelementptr inbounds nuw %struct.hm_header_st, ptr %167, i32 0, i32 5
  %169 = load i32, ptr %168, align 8, !tbaa !140
  %170 = call i32 @dtls1_get_queue_priority(i16 noundef zeroext %165, i32 noundef %169)
  %171 = ashr i32 %170, 8
  %172 = trunc i32 %171 to i8
  %173 = getelementptr inbounds [8 x i8], ptr %8, i64 0, i64 6
  store i8 %172, ptr %173, align 1, !tbaa !21
  %174 = load ptr, ptr %7, align 8, !tbaa !3
  %175 = getelementptr inbounds nuw %struct.hm_fragment_st, ptr %174, i32 0, i32 0
  %176 = getelementptr inbounds nuw %struct.hm_header_st, ptr %175, i32 0, i32 2
  %177 = load i16, ptr %176, align 8, !tbaa !139
  %178 = load ptr, ptr %7, align 8, !tbaa !3
  %179 = getelementptr inbounds nuw %struct.hm_fragment_st, ptr %178, i32 0, i32 0
  %180 = getelementptr inbounds nuw %struct.hm_header_st, ptr %179, i32 0, i32 5
  %181 = load i32, ptr %180, align 8, !tbaa !140
  %182 = call i32 @dtls1_get_queue_priority(i16 noundef zeroext %177, i32 noundef %181)
  %183 = trunc i32 %182 to i8
  %184 = getelementptr inbounds [8 x i8], ptr %8, i64 0, i64 7
  store i8 %183, ptr %184, align 1, !tbaa !21
  %185 = getelementptr inbounds [8 x i8], ptr %8, i64 0, i64 0
  %186 = load ptr, ptr %7, align 8, !tbaa !3
  %187 = call ptr @pitem_new(ptr noundef %185, ptr noundef %186)
  store ptr %187, ptr %6, align 8, !tbaa !135
  %188 = load ptr, ptr %6, align 8, !tbaa !135
  %189 = icmp eq ptr %188, null
  br i1 %189, label %190, label %192

190:                                              ; preds = %101
  %191 = load ptr, ptr %7, align 8, !tbaa !3
  call void @dtls1_hm_fragment_free(ptr noundef %191)
  store i32 0, ptr %3, align 4
  store i32 1, ptr %9, align 4
  br label %200

192:                                              ; preds = %101
  %193 = load ptr, ptr %4, align 8, !tbaa !19
  %194 = getelementptr inbounds nuw %struct.ssl_connection_st, ptr %193, i32 0, i32 25
  %195 = load ptr, ptr %194, align 8, !tbaa !80
  %196 = getelementptr inbounds nuw %struct.dtls1_state_st, ptr %195, i32 0, i32 7
  %197 = load ptr, ptr %196, align 8, !tbaa !133
  %198 = load ptr, ptr %6, align 8, !tbaa !135
  %199 = call ptr @pqueue_insert(ptr noundef %197, ptr noundef %198)
  store i32 1, ptr %3, align 4
  store i32 1, ptr %9, align 4
  br label %200

200:                                              ; preds = %192, %190, %98, %73, %30, %22
  call void @llvm.lifetime.end.p0(i64 8, ptr %8) #6
  call void @llvm.lifetime.end.p0(i64 8, ptr %7) #6
  call void @llvm.lifetime.end.p0(i64 8, ptr %6) #6
  %201 = load i32, ptr %3, align 4
  ret i32 %201
}