; Function Attrs: nounwind uwtable
define range(i32 0, 2) i32 @dtls1_buffer_message(ptr noundef readonly captures(none) %0, i32 noundef %1) local_unnamed_addr #0 {
  %3 = alloca [8 x i8], align 8
  call void @llvm.lifetime.start.p0(i64 8, ptr nonnull %3) #9
  %4 = getelementptr inbounds nuw i8, ptr %0, i64 272
  %5 = load i64, ptr %4, align 8, !tbaa !78
  %6 = icmp eq i64 %5, 0
  br i1 %6, label %7, label %dtls1_hm_fragment_new.exit.thread, !prof !81

7:                                                ; preds = %2
  %8 = getelementptr inbounds nuw i8, ptr %0, i64 264
  %9 = load i64, ptr %8, align 8, !tbaa !79
  %10 = tail call noalias ptr @CRYPTO_zalloc(i64 noundef 80, ptr noundef nonnull @.str, i32 noundef 68) #9
  %11 = icmp eq ptr %10, null
  br i1 %11, label %dtls1_hm_fragment_new.exit.thread, label %12

12:                                               ; preds = %7
  %.not.i = icmp eq i64 %9, 0
  br i1 %.not.i, label %17, label %13

13:                                               ; preds = %12
  %14 = tail call noalias ptr @CRYPTO_malloc(i64 noundef %9, ptr noundef nonnull @.str, i32 noundef 72) #9
  %15 = icmp eq ptr %14, null
  br i1 %15, label %16, label %17

16:                                               ; preds = %13
  tail call void @CRYPTO_free(ptr noundef nonnull %10, ptr noundef nonnull @.str, i32 noundef 73) #9
  br label %dtls1_hm_fragment_new.exit.thread

17:                                               ; preds = %13, %12
  %.013.i = phi ptr [ %14, %13 ], [ null, %12 ]
  %18 = getelementptr inbounds nuw i8, ptr %10, i64 64
  store ptr %.013.i, ptr %18, align 8, !tbaa !3
  %19 = getelementptr inbounds nuw i8, ptr %10, i64 72
  store ptr null, ptr %19, align 8, !tbaa !16
  %20 = getelementptr inbounds nuw i8, ptr %0, i64 248
  %21 = load ptr, ptr %20, align 8, !tbaa !91
  %22 = getelementptr inbounds nuw i8, ptr %21, i64 8
  %23 = load ptr, ptr %22, align 8, !tbaa !92
  %24 = load i64, ptr %8, align 8, !tbaa !79
  tail call void @llvm.memcpy.p0.p0.i64(ptr align 1 %.013.i, ptr align 1 %23, i64 %24, i1 false)
  %.not = icmp eq i32 %1, 0
  %25 = getelementptr inbounds nuw i8, ptr %0, i64 1264
  %26 = load ptr, ptr %25, align 8, !tbaa !74
  %27 = getelementptr inbounds nuw i8, ptr %26, i64 320
  %28 = load i64, ptr %27, align 8, !tbaa !80
  br i1 %.not, label %38, label %29

29:                                               ; preds = %17
  %30 = getelementptr inbounds nuw i8, ptr %0, i64 72
  %31 = load i32, ptr %30, align 8, !tbaa !100
  %32 = icmp eq i32 %31, 256
  %33 = select i1 %32, i64 3, i64 1
  %34 = add i64 %33, %28
  %35 = and i64 %24, 4294967295
  %36 = icmp eq i64 %34, %35
  br i1 %36, label %43, label %37, !prof !81

37:                                               ; preds = %29
  tail call void @dtls1_hm_fragment_free(ptr noundef nonnull %10)
  br label %dtls1_hm_fragment_new.exit.thread

38:                                               ; preds = %17
  %39 = add i64 %28, 12
  %40 = and i64 %24, 4294967295
  %41 = icmp eq i64 %39, %40
  br i1 %41, label %43, label %42, !prof !81

42:                                               ; preds = %38
  tail call void @dtls1_hm_fragment_free(ptr noundef nonnull %10)
  br label %dtls1_hm_fragment_new.exit.thread

43:                                               ; preds = %38, %29
  %44 = getelementptr inbounds nuw i8, ptr %10, i64 8
  store i64 %28, ptr %44, align 8, !tbaa !137
  %45 = getelementptr inbounds nuw i8, ptr %26, i64 328
  %46 = load i16, ptr %45, align 8, !tbaa !142
  %47 = getelementptr inbounds nuw i8, ptr %10, i64 16
  store i16 %46, ptr %47, align 8, !tbaa !110
  %48 = getelementptr inbounds nuw i8, ptr %26, i64 312
  %49 = load i8, ptr %48, align 8, !tbaa !143
  store i8 %49, ptr %10, align 8, !tbaa !138
  %50 = getelementptr inbounds nuw i8, ptr %10, i64 24
  store i64 0, ptr %50, align 8, !tbaa !116
  %51 = getelementptr inbounds nuw i8, ptr %10, i64 32
  store i64 %28, ptr %51, align 8, !tbaa !115
  %52 = getelementptr inbounds nuw i8, ptr %10, i64 40
  store i32 %1, ptr %52, align 8, !tbaa !135
  %53 = getelementptr inbounds nuw i8, ptr %0, i64 3192
  %54 = load ptr, ptr %53, align 8, !tbaa !82
  %55 = getelementptr inbounds nuw i8, ptr %10, i64 48
  store ptr %54, ptr %55, align 8, !tbaa !139
  %56 = getelementptr inbounds nuw i8, ptr %0, i64 3208
  %57 = load ptr, ptr %56, align 8, !tbaa !85
  %58 = getelementptr inbounds nuw i8, ptr %10, i64 56
  store ptr %57, ptr %58, align 8, !tbaa !140
  store i64 0, ptr %3, align 8
  %59 = zext i16 %46 to i32
  %60 = shl nuw nsw i32 %59, 1
  %61 = sub nsw i32 %60, %1
  %62 = lshr i32 %61, 8
  %63 = trunc i32 %62 to i8
  %64 = getelementptr inbounds nuw i8, ptr %3, i64 6
  store i8 %63, ptr %64, align 2, !tbaa !95
  %65 = trunc i32 %61 to i8
  %66 = getelementptr inbounds nuw i8, ptr %3, i64 7
  store i8 %65, ptr %66, align 1, !tbaa !95
  %67 = call ptr @pitem_new(ptr noundef nonnull %3, ptr noundef nonnull %10) #9
  %68 = icmp eq ptr %67, null
  br i1 %68, label %dtls1_hm_fragment_free.exit, label %71

dtls1_hm_fragment_free.exit:                      ; preds = %43
  %69 = load ptr, ptr %18, align 8, !tbaa !3
  call void @CRYPTO_free(ptr noundef %69, ptr noundef nonnull @.str, i32 noundef 101) #9
  %70 = load ptr, ptr %19, align 8, !tbaa !16
  call void @CRYPTO_free(ptr noundef %70, ptr noundef nonnull @.str, i32 noundef 102) #9
  call void @CRYPTO_free(ptr noundef nonnull %10, ptr noundef nonnull @.str, i32 noundef 103) #9
  br label %dtls1_hm_fragment_new.exit.thread

71:                                               ; preds = %43
  %72 = getelementptr inbounds nuw i8, ptr %0, i64 1264
  %73 = load ptr, ptr %72, align 8, !tbaa !74
  %74 = getelementptr inbounds nuw i8, ptr %73, i64 288
  %75 = load ptr, ptr %74, align 8, !tbaa !134
  %76 = call ptr @pqueue_insert(ptr noundef %75, ptr noundef nonnull %67) #9
  br label %dtls1_hm_fragment_new.exit.thread

dtls1_hm_fragment_new.exit.thread:                ; preds = %7, %16, %2, %71, %dtls1_hm_fragment_free.exit, %42, %37
  %.0 = phi i32 [ 0, %dtls1_hm_fragment_free.exit ], [ 1, %71 ], [ 0, %37 ], [ 0, %42 ], [ 0, %2 ], [ 0, %16 ], [ 0, %7 ]
  call void @llvm.lifetime.end.p0(i64 8, ptr nonnull %3) #9
  ret i32 %.0
}